target datalayout = "e-m:e-p270:32:32-p271:32:32-p272:64:64-i64:64-i128:128-f80:128-n8:16:32:64-S128"
target triple = "x86_64-pc-linux-gnu"

@st_str_packets = internal global ptr @.str.143, align 8
@st_str_responses = internal global ptr @.str.144, align 8
@st_node_packets = internal global i32 -1, align 4
@st_node_resp_broken = internal global i32 -1, align 4
@st_str_resp_broken = internal global ptr @.str.145, align 8
@st_node_resp_100 = internal global i32 -1, align 4
@st_str_resp_100 = internal global ptr @.str.146, align 8
@st_node_resp_200 = internal global i32 -1, align 4
@st_str_resp_200 = internal global ptr @.str.147, align 8
@st_node_resp_300 = internal global i32 -1, align 4
@st_str_resp_300 = internal global ptr @.str.148, align 8
@st_node_resp_400 = internal global i32 -1, align 4
@st_str_resp_400 = internal global ptr @.str.149, align 8
@st_node_resp_500 = internal global i32 -1, align 4
@st_str_resp_500 = internal global ptr @.str.150, align 8
@st_node_responses = internal global i32 -1, align 4
@st_node_requests = internal global i32 -1, align 4
@st_str_other = internal global ptr @.str.151, align 8
@st_str_requests = internal global ptr @.str.152, align 8
@st_node_other = internal global i32 -1, align 4

; Function Attrs: null_pointer_is_valid sspstrong uwtable
define internal void @rtsp_stats_tree_init(ptr noundef %0) #0 {
  %2 = alloca ptr, align 8
  store ptr %0, ptr %2, align 8
  %3 = load ptr, ptr %2, align 8
  %4 = load ptr, ptr @st_str_packets, align 8
  %5 = call i32 @stats_tree_create_node(ptr noundef %3, ptr noundef %4, i32 noundef 0, i32 noundef 0, i1 noundef zeroext true)
  store i32 %5, ptr @st_node_packets, align 4
  %6 = load ptr, ptr %2, align 8
  %7 = load ptr, ptr @st_str_requests, align 8
  %8 = load i32, ptr @st_node_packets, align 4
  %9 = call i32 @stats_tree_create_pivot(ptr noundef %6, ptr noundef %7, i32 noundef %8)
  store i32 %9, ptr @st_node_requests, align 4
  %10 = load ptr, ptr %2, align 8
  %11 = load ptr, ptr @st_str_responses, align 8
  %12 = load i32, ptr @st_node_packets, align 4
  %13 = call i32 @stats_tree_create_node(ptr noundef %10, ptr noundef %11, i32 noundef %12, i32 noundef 0, i1 noundef zeroext true)
  store i32 %13, ptr @st_node_responses, align 4
  %14 = load ptr, ptr %2, align 8
  %15 = load ptr, ptr @st_str_resp_broken, align 8
  %16 = load i32, ptr @st_node_responses, align 4
  %17 = call i32 @stats_tree_create_node(ptr noundef %14, ptr noundef %15, i32 noundef %16, i32 noundef 0, i1 noundef zeroext true)
  store i32 %17, ptr @st_node_resp_broken, align 4
  %18 = load ptr, ptr %2, align 8
  %19 = load ptr, ptr @st_str_resp_100, align 8
  %20 = load i32, ptr @st_node_responses, align 4
  %21 = call i32 @stats_tree_create_node(ptr noundef %18, ptr noundef %19, i32 noundef %20, i32 noundef 0, i1 noundef zeroext true)
  store i32 %21, ptr @st_node_resp_100, align 4
  %22 = load ptr, ptr %2, align 8
  %23 = load ptr, ptr @st_str_resp_200, align 8
  %24 = load i32, ptr @st_node_responses, align 4
  %25 = call i32 @stats_tree_create_node(ptr noundef %22, ptr noundef %23, i32 noundef %24, i32 noundef 0, i1 noundef zeroext true)
  store i32 %25, ptr @st_node_resp_200, align 4
  %26 = load ptr, ptr %2, align 8
  %27 = load ptr, ptr @st_str_resp_300, align 8
  %28 = load i32, ptr @st_node_responses, align 4
  %29 = call i32 @stats_tree_create_node(ptr noundef %26, ptr noundef %27, i32 noundef %28, i32 noundef 0, i1 noundef zeroext true)
  store i32 %29, ptr @st_node_resp_300, align 4
  %30 = load ptr, ptr %2, align 8
  %31 = load ptr, ptr @st_str_resp_400, align 8
  %32 = load i32, ptr @st_node_responses, align 4
  %33 = call i32 @stats_tree_create_node(ptr noundef %30, ptr noundef %31, i32 noundef %32, i32 noundef 0, i1 noundef zeroext true)
  store i32 %33, ptr @st_node_resp_400, align 4
  %34 = load ptr, ptr %2, align 8
  %35 = load ptr, ptr @st_str_resp_500, align 8
  %36 = load i32, ptr @st_node_responses, align 4
  %37 = call i32 @stats_tree_create_node(ptr noundef %34, ptr noundef %35, i32 noundef %36, i32 noundef 0, i1 noundef zeroext true)
  store i32 %37, ptr @st_node_resp_500, align 4
  %38 = load ptr, ptr %2, align 8
  %39 = load ptr, ptr @st_str_other, align 8
  %40 = load i32, ptr @st_node_packets, align 4
  %41 = call i32 @stats_tree_create_node(ptr noundef %38, ptr noundef %39, i32 noundef %40, i32 noundef 0, i1 noundef zeroext false)
  store i32 %41, ptr @st_node_other, align 4
  ret void
}