; Function Attrs: null_pointer_is_valid sspstrong uwtable
define internal void @rtsp_stats_tree_init(ptr noundef %0) #0 {
  %2 = tail call i32 @stats_tree_create_node(ptr noundef %0, ptr noundef nonnull @.str.143, i32 noundef 0, i32 noundef 0, i1 noundef zeroext true)
  store i32 %2, ptr @st_node_packets, align 4
  %3 = tail call i32 @stats_tree_create_pivot(ptr noundef %0, ptr noundef nonnull @.str.152, i32 noundef %2)
  store i32 %3, ptr @st_node_requests, align 4
  %4 = load i32, ptr @st_node_packets, align 4
  %5 = tail call i32 @stats_tree_create_node(ptr noundef %0, ptr noundef nonnull @.str.144, i32 noundef %4, i32 noundef 0, i1 noundef zeroext true)
  store i32 %5, ptr @st_node_responses, align 4
  %6 = tail call i32 @stats_tree_create_node(ptr noundef %0, ptr noundef nonnull @.str.145, i32 noundef %5, i32 noundef 0, i1 noundef zeroext true)
  store i32 %6, ptr @st_node_resp_broken, align 4
  %7 = load i32, ptr @st_node_responses, align 4
  %8 = tail call i32 @stats_tree_create_node(ptr noundef %0, ptr noundef nonnull @.str.146, i32 noundef %7, i32 noundef 0, i1 noundef zeroext true)
  store i32 %8, ptr @st_node_resp_100, align 4
  %9 = load i32, ptr @st_node_responses, align 4
  %10 = tail call i32 @stats_tree_create_node(ptr noundef %0, ptr noundef nonnull @.str.147, i32 noundef %9, i32 noundef 0, i1 noundef zeroext true)
  store i32 %10, ptr @st_node_resp_200, align 4
  %11 = load i32, ptr @st_node_responses, align 4
  %12 = tail call i32 @stats_tree_create_node(ptr noundef %0, ptr noundef nonnull @.str.148, i32 noundef %11, i32 noundef 0, i1 noundef zeroext true)
  store i32 %12, ptr @st_node_resp_300, align 4
  %13 = load i32, ptr @st_node_responses, align 4
  %14 = tail call i32 @stats_tree_create_node(ptr noundef %0, ptr noundef nonnull @.str.149, i32 noundef %13, i32 noundef 0, i1 noundef zeroext true)
  store i32 %14, ptr @st_node_resp_400, align 4
  %15 = load i32, ptr @st_node_responses, align 4
  %16 = tail call i32 @stats_tree_create_node(ptr noundef %0, ptr noundef nonnull @.str.150, i32 noundef %15, i32 noundef 0, i1 noundef zeroext true)
  store i32 %16, ptr @st_node_resp_500, align 4
  %17 = load i32, ptr @st_node_packets, align 4
  %18 = tail call i32 @stats_tree_create_node(ptr noundef %0, ptr noundef nonnull @.str.151, i32 noundef %17, i32 noundef 0, i1 noundef zeroext false)
  ret void
}